target datalayout = "e-m:e-p270:32:32-p271:32:32-p272:64:64-i64:64-i128:128-f80:128-n8:16:32:64-S128"
target triple = "x86_64-pc-linux-gnu"

; Function Attrs: null_pointer_is_valid sspstrong uwtable
define internal i32 @amf_get_u29(ptr noundef %0, i32 noundef %1, ptr noundef %2) #0 {
  %4 = alloca i32, align 4
  %5 = alloca ptr, align 8
  %6 = alloca i32, align 4
  %7 = alloca ptr, align 8
  %8 = alloca i32, align 4
  %9 = alloca i8, align 1
  %10 = alloca i32, align 4
  %11 = alloca i32, align 4
  store ptr %0, ptr %5, align 8
  store i32 %1, ptr %6, align 4
  store ptr %2, ptr %7, align 8
  call void @llvm.lifetime.start.p0(i64 4, ptr %8) #12
  store i32 0, ptr %8, align 4
  call void @llvm.lifetime.start.p0(i64 1, ptr %9) #12
  call void @llvm.lifetime.start.p0(i64 4, ptr %10) #12
  %12 = load ptr, ptr %5, align 8
  %13 = load i32, ptr %6, align 4
  %14 = call zeroext i8 @tvb_get_uint8(ptr noundef %12, i32 noundef %13)
  store i8 %14, ptr %9, align 1
  %15 = load i8, ptr %9, align 1
  %16 = zext i8 %15 to i32
  %17 = and i32 %16, 127
  store i32 %17, ptr %10, align 4
  %18 = load i32, ptr %6, align 4
  %19 = add i32 %18, 1
  store i32 %19, ptr %6, align 4
  %20 = load i32, ptr %8, align 4
  %21 = add i32 %20, 1
  store i32 %21, ptr %8, align 4
  %22 = load i8, ptr %9, align 1
  %23 = zext i8 %22 to i32
  %24 = and i32 %23, 128
  %25 = icmp ne i32 %24, 0
  br i1 %25, label %30, label %26

26:                                               ; preds = %3
  %27 = load i32, ptr %8, align 4
  %28 = load ptr, ptr %7, align 8
  store i32 %27, ptr %28, align 4
  %29 = load i32, ptr %10, align 4
  store i32 %29, ptr %4, align 4
  store i32 1, ptr %11, align 4
  br label %88

30:                                               ; preds = %3
  %31 = load ptr, ptr %5, align 8
  %32 = load i32, ptr %6, align 4
  %33 = call zeroext i8 @tvb_get_uint8(ptr noundef %31, i32 noundef %32)
  store i8 %33, ptr %9, align 1
  %34 = load i32, ptr %10, align 4
  %35 = shl i32 %34, 7
  %36 = load i8, ptr %9, align 1
  %37 = zext i8 %36 to i32
  %38 = and i32 %37, 127
  %39 = or i32 %35, %38
  store i32 %39, ptr %10, align 4
  %40 = load i32, ptr %6, align 4
  %41 = add i32 %40, 1
  store i32 %41, ptr %6, align 4
  %42 = load i32, ptr %8, align 4
  %43 = add i32 %42, 1
  store i32 %43, ptr %8, align 4
  %44 = load i8, ptr %9, align 1
  %45 = zext i8 %44 to i32
  %46 = and i32 %45, 128
  %47 = icmp ne i32 %46, 0
  br i1 %47, label %52, label %48

48:                                               ; preds = %30
  %49 = load i32, ptr %8, align 4
  %50 = load ptr, ptr %7, align 8
  store i32 %49, ptr %50, align 4
  %51 = load i32, ptr %10, align 4
  store i32 %51, ptr %4, align 4
  store i32 1, ptr %11, align 4
  br label %88

52:                                               ; preds = %30
  %53 = load ptr, ptr %5, align 8
  %54 = load i32, ptr %6, align 4
  %55 = call zeroext i8 @tvb_get_uint8(ptr noundef %53, i32 noundef %54)
  store i8 %55, ptr %9, align 1
  %56 = load i32, ptr %10, align 4
  %57 = shl i32 %56, 7
  %58 = load i8, ptr %9, align 1
  %59 = zext i8 %58 to i32
  %60 = and i32 %59, 127
  %61 = or i32 %57, %60
  store i32 %61, ptr %10, align 4
  %62 = load i32, ptr %6, align 4
  %63 = add i32 %62, 1
  store i32 %63, ptr %6, align 4
  %64 = load i32, ptr %8, align 4
  %65 = add i32 %64, 1
  store i32 %65, ptr %8, align 4
  %66 = load i8, ptr %9, align 1
  %67 = zext i8 %66 to i32
  %68 = and i32 %67, 128
  %69 = icmp ne i32 %68, 0
  br i1 %69, label %74, label %70

70:                                               ; preds = %52
  %71 = load i32, ptr %8, align 4
  %72 = load ptr, ptr %7, align 8
  store i32 %71, ptr %72, align 4
  %73 = load i32, ptr %10, align 4
  store i32 %73, ptr %4, align 4
  store i32 1, ptr %11, align 4
  br label %88

74:                                               ; preds = %52
  %75 = load ptr, ptr %5, align 8
  %76 = load i32, ptr %6, align 4
  %77 = call zeroext i8 @tvb_get_uint8(ptr noundef %75, i32 noundef %76)
  store i8 %77, ptr %9, align 1
  %78 = load i32, ptr %10, align 4
  %79 = shl i32 %78, 8
  %80 = load i8, ptr %9, align 1
  %81 = zext i8 %80 to i32
  %82 = or i32 %79, %81
  store i32 %82, ptr %10, align 4
  %83 = load i32, ptr %8, align 4
  %84 = add i32 %83, 1
  store i32 %84, ptr %8, align 4
  %85 = load i32, ptr %8, align 4
  %86 = load ptr, ptr %7, align 8
  store i32 %85, ptr %86, align 4
  %87 = load i32, ptr %10, align 4
  store i32 %87, ptr %4, align 4
  store i32 1, ptr %11, align 4
  br label %88

88:                                               ; preds = %74, %70, %48, %26
  call void @llvm.lifetime.end.p0(i64 4, ptr %10) #12
  call void @llvm.lifetime.end.p0(i64 1, ptr %9) #12
  call void @llvm.lifetime.end.p0(i64 4, ptr %8) #12
  %89 = load i32, ptr %4, align 4
  ret i32 %89
}