; Function Attrs: null_pointer_is_valid sspstrong uwtable
define internal fastcc range(i32 0, 536870912) i32 @amf_get_u29(ptr noundef %0, i32 noundef %1, ptr noundef writeonly captures(none) initializes((0, 4)) %2) unnamed_addr #0 {
  %4 = tail call zeroext i8 @tvb_get_uint8(ptr noundef %0, i32 noundef %1)
  %5 = and i8 %4, 127
  %6 = zext nneg i8 %5 to i32
  %.not = icmp sgt i8 %4, -1
  br i1 %.not, label %27, label %7

7:                                                ; preds = %3
  %8 = add i32 %1, 1
  %9 = tail call zeroext i8 @tvb_get_uint8(ptr noundef %0, i32 noundef %8)
  %10 = shl nuw nsw i32 %6, 7
  %11 = and i8 %9, 127
  %12 = zext nneg i8 %11 to i32
  %13 = or disjoint i32 %10, %12
  %.not37 = icmp sgt i8 %9, -1
  br i1 %.not37, label %27, label %14

14:                                               ; preds = %7
  %15 = add i32 %1, 2
  %16 = tail call zeroext i8 @tvb_get_uint8(ptr noundef %0, i32 noundef %15)
  %17 = shl nuw nsw i32 %13, 7
  %18 = and i8 %16, 127
  %19 = zext nneg i8 %18 to i32
  %20 = or disjoint i32 %17, %19
  %.not38 = icmp sgt i8 %16, -1
  br i1 %.not38, label %27, label %21

21:                                               ; preds = %14
  %22 = add i32 %1, 3
  %23 = tail call zeroext i8 @tvb_get_uint8(ptr noundef %0, i32 noundef %22)
  %24 = shl nuw nsw i32 %20, 8
  %25 = zext i8 %23 to i32
  %26 = or disjoint i32 %24, %25
  br label %27

27:                                               ; preds = %14, %7, %3, %21
  %.sink = phi i32 [ 4, %21 ], [ 1, %3 ], [ 2, %7 ], [ 3, %14 ]
  %.0 = phi i32 [ %26, %21 ], [ %6, %3 ], [ %13, %7 ], [ %20, %14 ]
  store i32 %.sink, ptr %2, align 4
  ret i32 %.0
}